; Function Attrs: mustprogress uwtable
define dso_local noundef zeroext i1 @_ZNK4Luau16TypeFunctionTypeeqERKS0_(ptr noundef nonnull align 8 dereferenceable(152) %0, ptr noundef nonnull align 8 dereferenceable(152) %1) local_unnamed_addr #2 align 2 personality ptr @__gxx_personality_v0 {
  %3 = alloca %"class.std::set", align 8
  call void @llvm.lifetime.start.p0(i64 48, ptr nonnull %3) #27
  %4 = getelementptr inbounds nuw i8, ptr %3, i64 8
  store i32 0, ptr %4, align 8, !tbaa !72
  %5 = getelementptr inbounds nuw i8, ptr %3, i64 16
  store ptr null, ptr %5, align 8, !tbaa !73
  %6 = getelementptr inbounds nuw i8, ptr %3, i64 24
  store ptr %4, ptr %6, align 8, !tbaa !64
  %7 = getelementptr inbounds nuw i8, ptr %3, i64 32
  store ptr %4, ptr %7, align 8, !tbaa !69
  %8 = getelementptr inbounds nuw i8, ptr %3, i64 40
  store i64 0, ptr %8, align 8, !tbaa !70
  %9 = invoke noundef zeroext i1 @_ZN4Luau8areEqualERSt3setISt4pairIPKvS3_ESt4lessIS4_ESaIS4_EERKNS_16TypeFunctionTypeESC_(ptr noundef nonnull align 8 dereferenceable(48) %3, ptr noundef nonnull align 8 dereferenceable(152) %0, ptr noundef nonnull align 8 dereferenceable(152) %1)
          to label %10 unwind label %15

10:                                               ; preds = %2
  %11 = load ptr, ptr %5, align 8, !tbaa !73
  invoke void @_ZNSt8_Rb_treeISt4pairIPKvS2_ES3_St9_IdentityIS3_ESt4lessIS3_ESaIS3_EE8_M_eraseEPSt13_Rb_tree_nodeIS3_E(ptr noundef nonnull align 8 dereferenceable(48) %3, ptr noundef %11)
          to label %_ZNSt3setISt4pairIPKvS2_ESt4lessIS3_ESaIS3_EED2Ev.exit unwind label %12

12:                                               ; preds = %10
  %13 = landingpad { ptr, i32 }
          catch ptr null
  %14 = extractvalue { ptr, i32 } %13, 0
  call void @__clang_call_terminate(ptr %14) #28
  unreachable

_ZNSt3setISt4pairIPKvS2_ESt4lessIS3_ESaIS3_EED2Ev.exit: ; preds = %10
  call void @llvm.lifetime.end.p0(i64 48, ptr nonnull %3) #27
  ret i1 %9

15:                                               ; preds = %2
  %16 = landingpad { ptr, i32 }
          cleanup
  call void @_ZNSt3setISt4pairIPKvS2_ESt4lessIS3_ESaIS3_EED2Ev(ptr noundef nonnull align 8 dereferenceable(48) %3) #27
  call void @llvm.lifetime.end.p0(i64 48, ptr nonnull %3) #27
  resume { ptr, i32 } %16
}